(dp1
S'folders'
p2
ccopy_reg
_reconstructor
p3
(ctwisted.plugin
CachedDropin
p4
c__builtin__
object
p5
NtRp6
(dp7
S'moduleName'
p8
S'jolicloud_pkg_daemon.managers.folders'
p9
sS'description'
p10
NsS'plugins'
p11
(lp12
g3
(ctwisted.plugin
CachedPlugin
p13
g5
NtRp14
(dp15
S'provided'
p16
(lp17
ctwisted.plugin
IPlugin
p18
acjolicloud_pkg_daemon.jolidaemon.ijolidaemon
ISessionManager
p19
asS'dropin'
p20
g6
sS'name'
p21
S'foldersManager'
p22
sg10
NsbasbsS'info'
p23
g3
(g4
g5
NtRp24
(dp25
S'moduleName'
p26
S'jolicloud_pkg_daemon.managers.info'
p27
sS'description'
p28
NsS'plugins'
p29
(lp30
g3
(g13
g5
NtRp31
(dp32
S'provided'
p33
(lp34
g18
ag19
asS'dropin'
p35
g24
sS'name'
p36
S'infoManager'
p37
sg28
NsbasbsS'daemon'
p38
g3
(g4
g5
NtRp39
(dp40
g8
S'jolicloud_pkg_daemon.managers.daemon'
p41
sg10
Nsg11
(lp42
g3
(g13
g5
NtRp43
(dp44
g16
(lp45
g18
ag19
asg20
g39
sg21
S'daemonManager'
p46
sg10
NsbasbsS'network'
p47
g3
(g4
g5
NtRp48
(dp49
S'moduleName'
p50
S'jolicloud_pkg_daemon.managers.network'
p51
sS'description'
p52
NsS'plugins'
p53
(lp54
g3
(g13
g5
NtRp55
(dp56
S'provided'
p57
(lp58
g18
ag19
asS'dropin'
p59
g48
sS'name'
p60
S'networkManager'
p61
sg52
NsbasbsS'power'
p62
g3
(g4
g5
NtRp63
(dp64
S'moduleName'
p65
S'jolicloud_pkg_daemon.managers.power'
p66
sS'description'
p67
NsS'plugins'
p68
(lp69
g3
(g13
g5
NtRp70
(dp71
S'provided'
p72
(lp73
g18
ag19
asS'dropin'
p74
g63
sS'name'
p75
S'powerManager'
p76
sg67
NsbasbsS'apps'
p77
g3
(g4
g5
NtRp78
(dp79
g8
S'jolicloud_pkg_daemon.managers.apps'
p80
sg10
Nsg11
(lp81
g3
(g13
g5
NtRp82
(dp83
g16
(lp84
g18
ag19
asg20
g78
sg21
S'appsManager'
p85
sg10
NsbasbsS'devices'
p86
g3
(g4
g5
NtRp87
(dp88
S'moduleName'
p89
S'jolicloud_pkg_daemon.managers.devices'
p90
sS'description'
p91
NsS'plugins'
p92
(lp93
sbsS'session'
p94
g3
(g4
g5
NtRp95
(dp96
S'moduleName'
p97
S'jolicloud_pkg_daemon.managers.session'
p98
sS'description'
p99
NsS'plugins'
p100
(lp101
g3
(g13
g5
NtRp102
(dp103
S'provided'
p104
(lp105
g18
ag19
asS'dropin'
p106
g95
sS'name'
p107
S'sessionManager'
p108
sg99
NsbasbsS'localstorage'
p109
g3
(g4
g5
NtRp110
(dp111
S'moduleName'
p112
S'jolicloud_pkg_daemon.managers.localstorage'
p113
sS'description'
p114
NsS'plugins'
p115
(lp116
g3
(g13
g5
NtRp117
(dp118
S'provided'
p119
(lp120
g18
ag19
asS'dropin'
p121
g110
sS'name'
p122
S'localstorageManager'
p123
sg114
NsbasbsS'login'
p124
g3
(g4
g5
NtRp125
(dp126
S'moduleName'
p127
S'jolicloud_pkg_daemon.managers.login'
p128
sS'description'
p129
NsS'plugins'
p130
(lp131
g3
(g13
g5
NtRp132
(dp133
S'provided'
p134
(lp135
g18
acjolicloud_pkg_daemon.jolidaemon.ijolidaemon
ISystemManager
p136
asS'dropin'
p137
g125
sS'name'
p138
S'loginManager'
p139
sg129
NsbasbsS'packages'
p140
g3
(g4
g5
NtRp141
(dp142
S'moduleName'
p143
S'jolicloud_pkg_daemon.managers.packages'
p144
sS'description'
p145
NsS'plugins'
p146
(lp147
g3
(g13
g5
NtRp148
(dp149
S'provided'
p150
(lp151
g18
ag19
asS'dropin'
p152
g141
sS'name'
p153
S'packagesManager'
p154
sg145
Nsbasbs.