(dp1
S'folders'
p2
ccopy_reg
_reconstructor
p3
(ctwisted.plugin
CachedDropin
p4
c__builtin__
object
p5
NtRp6
(dp7
S'moduleName'
p8
S'jolicloud_pkg_daemon.managers.folders'
p9
sS'description'
p10
NsS'plugins'
p11
(lp12
g3
(ctwisted.plugin
CachedPlugin
p13
g5
NtRp14
(dp15
S'provided'
p16
(lp17
ctwisted.plugin
IPlugin
p18
acjolicloud_pkg_daemon.jolidaemon.ijolidaemon
ISessionManager
p19
asS'dropin'
p20
g6
sS'name'
p21
S'foldersManager'
p22
sg10
NsbasbsS'info'
p23
g3
(g4
g5
NtRp24
(dp25
S'moduleName'
p26
S'jolicloud_pkg_daemon.managers.info'
p27
sS'description'
p28
NsS'plugins'
p29
(lp30
g3
(g13
g5
NtRp31
(dp32
S'provided'
p33
(lp34
g18
ag19
asS'dropin'
p35
g24
sS'name'
p36
S'infoManager'
p37
sg28
NsbasbsS'daemon'
p38
g3
(g4
g5
NtRp39
(dp40
S'moduleName'
p41
S'jolicloud_pkg_daemon.managers.daemon'
p42
sS'description'
p43
NsS'plugins'
p44
(lp45
g3
(g13
g5
NtRp46
(dp47
S'provided'
p48
(lp49
g18
ag19
asS'dropin'
p50
g39
sS'name'
p51
S'daemonManager'
p52
sg43
NsbasbsS'network'
p53
g3
(g4
g5
NtRp54
(dp55
S'moduleName'
p56
S'jolicloud_pkg_daemon.managers.network'
p57
sS'description'
p58
NsS'plugins'
p59
(lp60
g3
(g13
g5
NtRp61
(dp62
S'provided'
p63
(lp64
g18
ag19
asS'dropin'
p65
g54
sS'name'
p66
S'networkManager'
p67
sg58
NsbasbsS'power'
p68
g3
(g4
g5
NtRp69
(dp70
S'moduleName'
p71
S'jolicloud_pkg_daemon.managers.power'
p72
sS'description'
p73
NsS'plugins'
p74
(lp75
g3
(g13
g5
NtRp76
(dp77
S'provided'
p78
(lp79
g18
ag19
asS'dropin'
p80
g69
sS'name'
p81
S'powerManager'
p82
sg73
NsbasbsS'apps'
p83
g3
(g4
g5
NtRp84
(dp85
S'moduleName'
p86
S'jolicloud_pkg_daemon.managers.apps'
p87
sS'description'
p88
NsS'plugins'
p89
(lp90
g3
(g13
g5
NtRp91
(dp92
S'provided'
p93
(lp94
g18
ag19
asS'dropin'
p95
g84
sS'name'
p96
S'appsManager'
p97
sg88
NsbasbsS'devices'
p98
g3
(g4
g5
NtRp99
(dp100
S'moduleName'
p101
S'jolicloud_pkg_daemon.managers.devices'
p102
sS'description'
p103
NsS'plugins'
p104
(lp105
g3
(g13
g5
NtRp106
(dp107
S'provided'
p108
(lp109
g18
ag19
asS'dropin'
p110
g99
sS'name'
p111
S'devicesManager'
p112
sg103
NsbasbsS'session'
p113
g3
(g4
g5
NtRp114
(dp115
S'moduleName'
p116
S'jolicloud_pkg_daemon.managers.session'
p117
sS'description'
p118
NsS'plugins'
p119
(lp120
g3
(g13
g5
NtRp121
(dp122
S'provided'
p123
(lp124
g18
ag19
asS'dropin'
p125
g114
sS'name'
p126
S'sessionManager'
p127
sg118
NsbasbsS'localstorage'
p128
g3
(g4
g5
NtRp129
(dp130
S'moduleName'
p131
S'jolicloud_pkg_daemon.managers.localstorage'
p132
sS'description'
p133
NsS'plugins'
p134
(lp135
g3
(g13
g5
NtRp136
(dp137
S'provided'
p138
(lp139
g18
ag19
asS'dropin'
p140
g129
sS'name'
p141
S'localstorageManager'
p142
sg133
NsbasbsS'publicwifi'
p143
g3
(g4
g5
NtRp144
(dp145
S'moduleName'
p146
S'jolicloud_pkg_daemon.managers.publicwifi'
p147
sS'description'
p148
NsS'plugins'
p149
(lp150
sbsS'packages'
p151
g3
(g4
g5
NtRp152
(dp153
g86
S'jolicloud_pkg_daemon.managers.packages'
p154
sg88
Nsg89
(lp155
g3
(g13
g5
NtRp156
(dp157
g93
(lp158
g18
ag19
asg95
g152
sg96
S'packagesManager'
p159
sg88
NsbasbsS'preferences'
p160
g3
(g4
g5
NtRp161
(dp162
S'moduleName'
p163
S'jolicloud_pkg_daemon.managers.preferences'
p164
sS'description'
p165
NsS'plugins'
p166
(lp167
g3
(g13
g5
NtRp168
(dp169
S'provided'
p170
(lp171
g18
ag19
asS'dropin'
p172
g161
sS'name'
p173
S'preferencesManager'
p174
sg165
Nsbasbs.