(dp1
S'folders'
p2
ccopy_reg
_reconstructor
p3
(ctwisted.plugin
CachedDropin
p4
c__builtin__
object
p5
NtRp6
(dp7
S'moduleName'
p8
S'jolicloud_pkg_daemon.managers.folders'
p9
sS'description'
p10
NsS'plugins'
p11
(lp12
g3
(ctwisted.plugin
CachedPlugin
p13
g5
NtRp14
(dp15
S'provided'
p16
(lp17
ctwisted.plugin
IPlugin
p18
acjolicloud_pkg_daemon.jolidaemon.ijolidaemon
ISessionManager
p19
asS'dropin'
p20
g6
sS'name'
p21
S'foldersManager'
p22
sg10
NsbasbsS'info'
p23
g3
(g4
g5
NtRp24
(dp25
S'moduleName'
p26
S'jolicloud_pkg_daemon.managers.info'
p27
sS'description'
p28
NsS'plugins'
p29
(lp30
g3
(g13
g5
NtRp31
(dp32
S'provided'
p33
(lp34
g18
ag19
asS'dropin'
p35
g24
sS'name'
p36
S'infoManager'
p37
sg28
NsbasbsS'daemon'
p38
g3
(g4
g5
NtRp39
(dp40
S'moduleName'
p41
S'jolicloud_pkg_daemon.managers.daemon'
p42
sS'description'
p43
NsS'plugins'
p44
(lp45
g3
(g13
g5
NtRp46
(dp47
S'provided'
p48
(lp49
g18
ag19
asS'dropin'
p50
g39
sS'name'
p51
S'daemonManager'
p52
sg43
NsbasbsS'network'
p53
g3
(g4
g5
NtRp54
(dp55
S'moduleName'
p56
S'jolicloud_pkg_daemon.managers.network'
p57
sS'description'
p58
NsS'plugins'
p59
(lp60
g3
(g13
g5
NtRp61
(dp62
S'provided'
p63
(lp64
g18
ag19
asS'dropin'
p65
g54
sS'name'
p66
S'networkManager'
p67
sg58
NsbasbsS'apps'
p68
g3
(g4
g5
NtRp69
(dp70
S'moduleName'
p71
S'jolicloud_pkg_daemon.managers.apps'
p72
sS'description'
p73
NsS'plugins'
p74
(lp75
g3
(g13
g5
NtRp76
(dp77
S'provided'
p78
(lp79
g18
ag19
asS'dropin'
p80
g69
sS'name'
p81
S'appsManager'
p82
sg73
NsbasbsS'devices'
p83
g3
(g4
g5
NtRp84
(dp85
S'moduleName'
p86
S'jolicloud_pkg_daemon.managers.devices'
p87
sS'description'
p88
NsS'plugins'
p89
(lp90
sbsS'localstorage'
p91
g3
(g4
g5
NtRp92
(dp93
S'moduleName'
p94
S'jolicloud_pkg_daemon.managers.localstorage'
p95
sS'description'
p96
NsS'plugins'
p97
(lp98
g3
(g13
g5
NtRp99
(dp100
S'provided'
p101
(lp102
g18
ag19
asS'dropin'
p103
g92
sS'name'
p104
S'localstorageManager'
p105
sg96
NsbasbsS'login'
p106
g3
(g4
g5
NtRp107
(dp108
S'moduleName'
p109
S'jolicloud_pkg_daemon.managers.login'
p110
sS'description'
p111
NsS'plugins'
p112
(lp113
g3
(g13
g5
NtRp114
(dp115
S'provided'
p116
(lp117
g18
acjolicloud_pkg_daemon.jolidaemon.ijolidaemon
ISystemManager
p118
asS'dropin'
p119
g107
sS'name'
p120
S'loginManager'
p121
sg111
NsbasbsS'packages'
p122
g3
(g4
g5
NtRp123
(dp124
S'moduleName'
p125
S'jolicloud_pkg_daemon.managers.packages'
p126
sS'description'
p127
NsS'plugins'
p128
(lp129
g3
(g13
g5
NtRp130
(dp131
S'provided'
p132
(lp133
g18
ag19
asS'dropin'
p134
g123
sS'name'
p135
S'packagesManager'
p136
sg127
Nsbasbs.