(dp1
S'folders'
p2
ccopy_reg
_reconstructor
p3
(ctwisted.plugin
CachedDropin
p4
c__builtin__
object
p5
NtRp6
(dp7
S'moduleName'
p8
S'jolicloud_pkg_daemon.managers.folders'
p9
sS'description'
p10
NsS'plugins'
p11
(lp12
g3
(ctwisted.plugin
CachedPlugin
p13
g5
NtRp14
(dp15
S'provided'
p16
(lp17
ctwisted.plugin
IPlugin
p18
acjolicloud_pkg_daemon.jolidaemon.ijolidaemon
ISessionManager
p19
asS'dropin'
p20
g6
sS'name'
p21
S'foldersManager'
p22
sg10
NsbasbsS'info'
p23
g3
(g4
g5
NtRp24
(dp25
S'moduleName'
p26
S'jolicloud_pkg_daemon.managers.info'
p27
sS'description'
p28
NsS'plugins'
p29
(lp30
g3
(g13
g5
NtRp31
(dp32
S'provided'
p33
(lp34
g18
ag19
asS'dropin'
p35
g24
sS'name'
p36
S'infoManager'
p37
sg28
NsbasbsS'daemon'
p38
g3
(g4
g5
NtRp39
(dp40
S'moduleName'
p41
S'jolicloud_pkg_daemon.managers.daemon'
p42
sS'description'
p43
NsS'plugins'
p44
(lp45
g3
(g13
g5
NtRp46
(dp47
S'provided'
p48
(lp49
g18
ag19
asS'dropin'
p50
g39
sS'name'
p51
S'daemonManager'
p52
sg43
NsbasbsS'network'
p53
g3
(g4
g5
NtRp54
(dp55
S'moduleName'
p56
S'jolicloud_pkg_daemon.managers.network'
p57
sS'description'
p58
NsS'plugins'
p59
(lp60
sbsS'apps'
p61
g3
(g4
g5
NtRp62
(dp63
S'moduleName'
p64
S'jolicloud_pkg_daemon.managers.apps'
p65
sS'description'
p66
NsS'plugins'
p67
(lp68
g3
(g13
g5
NtRp69
(dp70
S'provided'
p71
(lp72
g18
ag19
asS'dropin'
p73
g62
sS'name'
p74
S'appsManager'
p75
sg66
NsbasbsS'devices'
p76
g3
(g4
g5
NtRp77
(dp78
g8
S'jolicloud_pkg_daemon.managers.devices'
p79
sg10
Nsg11
(lp80
sbsS'localstorage'
p81
g3
(g4
g5
NtRp82
(dp83
S'moduleName'
p84
S'jolicloud_pkg_daemon.managers.localstorage'
p85
sS'description'
p86
NsS'plugins'
p87
(lp88
g3
(g13
g5
NtRp89
(dp90
S'provided'
p91
(lp92
g18
ag19
asS'dropin'
p93
g82
sS'name'
p94
S'localstorageManager'
p95
sg86
NsbasbsS'login'
p96
g3
(g4
g5
NtRp97
(dp98
S'moduleName'
p99
S'jolicloud_pkg_daemon.managers.login'
p100
sS'description'
p101
NsS'plugins'
p102
(lp103
g3
(g13
g5
NtRp104
(dp105
S'provided'
p106
(lp107
g18
acjolicloud_pkg_daemon.jolidaemon.ijolidaemon
ISystemManager
p108
asS'dropin'
p109
g97
sS'name'
p110
S'loginManager'
p111
sg101
NsbasbsS'packages'
p112
g3
(g4
g5
NtRp113
(dp114
S'moduleName'
p115
S'jolicloud_pkg_daemon.managers.packages'
p116
sS'description'
p117
NsS'plugins'
p118
(lp119
g3
(g13
g5
NtRp120
(dp121
S'provided'
p122
(lp123
g18
ag19
asS'dropin'
p124
g113
sS'name'
p125
S'packagesManager'
p126
sg117
Nsbasbs.