(dp1
S'folders'
p2
ccopy_reg
_reconstructor
p3
(ctwisted.plugin
CachedDropin
p4
c__builtin__
object
p5
NtRp6
(dp7
S'moduleName'
p8
S'jolicloud_pkg_daemon.managers.folders'
p9
sS'description'
p10
NsS'plugins'
p11
(lp12
g3
(ctwisted.plugin
CachedPlugin
p13
g5
NtRp14
(dp15
S'provided'
p16
(lp17
ctwisted.plugin
IPlugin
p18
acjolicloud_pkg_daemon.jolidaemon.ijolidaemon
IManager
p19
asS'dropin'
p20
g6
sS'name'
p21
S'foldersManager'
p22
sg10
NsbasbsS'daemon'
p23
g3
(g4
g5
NtRp24
(dp25
S'moduleName'
p26
S'jolicloud_pkg_daemon.managers.daemon'
p27
sS'description'
p28
NsS'plugins'
p29
(lp30
g3
(g13
g5
NtRp31
(dp32
S'provided'
p33
(lp34
g18
ag19
asS'dropin'
p35
g24
sS'name'
p36
S'daemonManager'
p37
sg28
NsbasbsS'packages'
p38
g3
(g4
g5
NtRp39
(dp40
S'moduleName'
p41
S'jolicloud_pkg_daemon.managers.packages'
p42
sS'description'
p43
NsS'plugins'
p44
(lp45
g3
(g13
g5
NtRp46
(dp47
S'provided'
p48
(lp49
g18
ag19
asS'dropin'
p50
g39
sS'name'
p51
S'packagesManager'
p52
sg43
NsbasbsS'network'
p53
g3
(g4
g5
NtRp54
(dp55
S'moduleName'
p56
S'jolicloud_pkg_daemon.managers.network'
p57
sS'description'
p58
NsS'plugins'
p59
(lp60
g3
(g13
g5
NtRp61
(dp62
S'provided'
p63
(lp64
g18
ag19
asS'dropin'
p65
g54
sS'name'
p66
S'networkManager'
p67
sg58
NsbasbsS'devices'
p68
g3
(g4
g5
NtRp69
(dp70
S'moduleName'
p71
S'jolicloud_pkg_daemon.managers.devices'
p72
sS'description'
p73
NsS'plugins'
p74
(lp75
sbs.