(dp1
S'folders'
p2
ccopy_reg
_reconstructor
p3
(ctwisted.plugin
CachedDropin
p4
c__builtin__
object
p5
NtRp6
(dp7
S'moduleName'
p8
S'jolicloud_pkg_daemon.managers.folders'
p9
sS'description'
p10
NsS'plugins'
p11
(lp12
g3
(ctwisted.plugin
CachedPlugin
p13
g5
NtRp14
(dp15
S'provided'
p16
(lp17
ctwisted.plugin
IPlugin
p18
acjolicloud_pkg_daemon.jolidaemon.ijolidaemon
ISessionManager
p19
asS'dropin'
p20
g6
sS'name'
p21
S'foldersManager'
p22
sg10
NsbasbsS'daemon'
p23
g3
(g4
g5
NtRp24
(dp25
g8
S'jolicloud_pkg_daemon.managers.daemon'
p26
sg10
Nsg11
(lp27
g3
(g13
g5
NtRp28
(dp29
g16
(lp30
g18
ag19
asg20
g24
sg21
S'daemonManager'
p31
sg10
NsbasbsS'network'
p32
g3
(g4
g5
NtRp33
(dp34
g8
S'jolicloud_pkg_daemon.managers.network'
p35
sg10
Nsg11
(lp36
sbsS'devices'
p37
g3
(g4
g5
NtRp38
(dp39
g8
S'jolicloud_pkg_daemon.managers.devices'
p40
sg10
Nsg11
(lp41
sbsS'login'
p42
g3
(g4
g5
NtRp43
(dp44
S'moduleName'
p45
S'jolicloud_pkg_daemon.managers.login'
p46
sS'description'
p47
NsS'plugins'
p48
(lp49
g3
(g13
g5
NtRp50
(dp51
S'provided'
p52
(lp53
g18
acjolicloud_pkg_daemon.jolidaemon.ijolidaemon
ISystemManager
p54
asS'dropin'
p55
g43
sS'name'
p56
S'loginManager'
p57
sg47
NsbasbsS'packages'
p58
g3
(g4
g5
NtRp59
(dp60
S'moduleName'
p61
S'jolicloud_pkg_daemon.managers.packages'
p62
sS'description'
p63
NsS'plugins'
p64
(lp65
g3
(g13
g5
NtRp66
(dp67
S'provided'
p68
(lp69
g18
ag19
asS'dropin'
p70
g59
sS'name'
p71
S'packagesManager'
p72
sg63
Nsbasbs.