(dp1
S'folders'
p2
ccopy_reg
_reconstructor
p3
(ctwisted.plugin
CachedDropin
p4
c__builtin__
object
p5
NtRp6
(dp7
S'moduleName'
p8
S'jolicloud_pkg_daemon.managers.folders'
p9
sS'description'
p10
NsS'plugins'
p11
(lp12
g3
(ctwisted.plugin
CachedPlugin
p13
g5
NtRp14
(dp15
S'provided'
p16
(lp17
ctwisted.plugin
IPlugin
p18
acjolicloud_pkg_daemon.jolidaemon.ijolidaemon
IManager
p19
asS'dropin'
p20
g6
sS'name'
p21
S'foldersManager'
p22
sg10
NsbasbsS'daemon'
p23
g3
(g4
g5
NtRp24
(dp25
g8
S'jolicloud_pkg_daemon.managers.daemon'
p26
sg10
Nsg11
(lp27
g3
(g13
g5
NtRp28
(dp29
g16
(lp30
g18
ag19
asg20
g24
sg21
S'daemonManager'
p31
sg10
NsbasbsS'apps'
p32
g3
(g4
g5
NtRp33
(dp34
g8
S'jolicloud_pkg_daemon.managers.apps'
p35
sg10
Nsg11
(lp36
g3
(g13
g5
NtRp37
(dp38
g16
(lp39
g18
ag19
asg20
g33
sg21
S'appsManager'
p40
sg10
NsbasbsS'devices'
p41
g3
(g4
g5
NtRp42
(dp43
g8
S'jolicloud_pkg_daemon.managers.devices'
p44
sg10
Nsg11
(lp45
sbsS'session'
p46
g3
(g4
g5
NtRp47
(dp48
g8
S'jolicloud_pkg_daemon.managers.session'
p49
sg10
Nsg11
(lp50
g3
(g13
g5
NtRp51
(dp52
g16
(lp53
g18
ag19
asg20
g47
sg21
S'sessionManager'
p54
sg10
S'shutdown/reboot/hibernate/suspend computer'
p55
sbasbsS'volumes'
p56
g3
(g4
g5
NtRp57
(dp58
g8
S'jolicloud_pkg_daemon.managers.volumes'
p59
sg10
Nsg11
(lp60
g3
(g13
g5
NtRp61
(dp62
g16
(lp63
g18
ag19
asg20
g57
sg21
S'devicesManager'
p64
sg10
NsbasbsS'packages'
p65
g3
(g4
g5
NtRp66
(dp67
S'moduleName'
p68
S'jolicloud_pkg_daemon.managers.packages'
p69
sS'description'
p70
NsS'plugins'
p71
(lp72
g3
(g13
g5
NtRp73
(dp74
S'provided'
p75
(lp76
g18
ag19
asS'dropin'
p77
g66
sS'name'
p78
S'packagesManager'
p79
sg70
Nsbasbs.