(dp1
S'folders'
p2
ccopy_reg
_reconstructor
p3
(ctwisted.plugin
CachedDropin
p4
c__builtin__
object
p5
NtRp6
(dp7
S'moduleName'
p8
S'jolicloud_daemon.managers.folders'
p9
sS'description'
p10
NsS'plugins'
p11
(lp12
g3
(ctwisted.plugin
CachedPlugin
p13
g5
NtRp14
(dp15
S'provided'
p16
(lp17
ctwisted.plugin
IPlugin
p18
acjolicloud_daemon.jolidaemon.ijolidaemon
ISessionManager
p19
asS'dropin'
p20
g6
sS'name'
p21
S'foldersManager'
p22
sg10
NsbasbsS'info'
p23
g3
(g4
g5
NtRp24
(dp25
g8
S'jolicloud_daemon.managers.info'
p26
sg10
Nsg11
(lp27
g3
(g13
g5
NtRp28
(dp29
g16
(lp30
g18
ag19
asg20
g24
sg21
S'infoManager'
p31
sg10
NsbasbsS'daemon'
p32
g3
(g4
g5
NtRp33
(dp34
S'moduleName'
p35
S'jolicloud_daemon.managers.daemon'
p36
sS'description'
p37
NsS'plugins'
p38
(lp39
g3
(g13
g5
NtRp40
(dp41
S'provided'
p42
(lp43
g18
ag19
asS'dropin'
p44
g33
sS'name'
p45
S'daemonManager'
p46
sg37
NsbasbsS'network'
p47
g3
(g4
g5
NtRp48
(dp49
S'moduleName'
p50
S'jolicloud_daemon.managers.network'
p51
sS'description'
p52
NsS'plugins'
p53
(lp54
g3
(g13
g5
NtRp55
(dp56
S'provided'
p57
(lp58
g18
ag19
asS'dropin'
p59
g48
sS'name'
p60
S'networkManager'
p61
sg52
NsbasbsS'power'
p62
g3
(g4
g5
NtRp63
(dp64
g8
S'jolicloud_daemon.managers.power'
p65
sg10
Nsg11
(lp66
g3
(g13
g5
NtRp67
(dp68
g16
(lp69
g18
ag19
asg20
g63
sg21
S'powerManager'
p70
sg10
NsbasbsS'apps'
p71
g3
(g4
g5
NtRp72
(dp73
g35
S'jolicloud_daemon.managers.apps'
p74
sg37
Nsg38
(lp75
g3
(g13
g5
NtRp76
(dp77
g42
(lp78
g18
ag19
asg44
g72
sg45
S'appsManager'
p79
sg37
NsbasbsS'devices'
p80
g3
(g4
g5
NtRp81
(dp82
S'moduleName'
p83
S'jolicloud_daemon.managers.devices'
p84
sS'description'
p85
NsS'plugins'
p86
(lp87
g3
(g13
g5
NtRp88
(dp89
S'provided'
p90
(lp91
g18
ag19
asS'dropin'
p92
g81
sS'name'
p93
S'devicesManager'
p94
sg85
NsbasbsS'session'
p95
g3
(g4
g5
NtRp96
(dp97
g8
S'jolicloud_daemon.managers.session'
p98
sg10
Nsg11
(lp99
g3
(g13
g5
NtRp100
(dp101
g16
(lp102
g18
ag19
asg20
g96
sg21
S'sessionManager'
p103
sg10
NsbasbsS'localstorage'
p104
g3
(g4
g5
NtRp105
(dp106
g8
S'jolicloud_daemon.managers.localstorage'
p107
sg10
Nsg11
(lp108
g3
(g13
g5
NtRp109
(dp110
g16
(lp111
g18
ag19
asg20
g105
sg21
S'localstorageManager'
p112
sg10
NsbasbsS'filesystem'
p113
g3
(g4
g5
NtRp114
(dp115
S'moduleName'
p116
S'jolicloud_daemon.managers.filesystem'
p117
sS'description'
p118
NsS'plugins'
p119
(lp120
g3
(g13
g5
NtRp121
(dp122
S'provided'
p123
(lp124
g18
ag19
asS'dropin'
p125
g114
sS'name'
p126
S'filesystemManager'
p127
sg118
NsbasbsS'packages'
p128
g3
(g4
g5
NtRp129
(dp130
S'moduleName'
p131
S'jolicloud_daemon.managers.packages'
p132
sS'description'
p133
NsS'plugins'
p134
(lp135
g3
(g13
g5
NtRp136
(dp137
S'provided'
p138
(lp139
g18
ag19
asS'dropin'
p140
g129
sS'name'
p141
S'packagesManager'
p142
sg133
NsbasbsS'preferences'
p143
g3
(g4
g5
NtRp144
(dp145
g116
S'jolicloud_daemon.managers.preferences'
p146
sg118
Nsg119
(lp147
g3
(g13
g5
NtRp148
(dp149
g123
(lp150
g18
ag19
asg125
g144
sg126
S'preferencesManager'
p151
sg118
Nsbasbs.