(dp1
S'folders'
p2
ccopy_reg
_reconstructor
p3
(ctwisted.plugin
CachedDropin
p4
c__builtin__
object
p5
NtRp6
(dp7
S'moduleName'
p8
S'jolicloud_daemon.managers.folders'
p9
sS'description'
p10
NsS'plugins'
p11
(lp12
g3
(ctwisted.plugin
CachedPlugin
p13
g5
NtRp14
(dp15
S'provided'
p16
(lp17
ctwisted.plugin
IPlugin
p18
acjolicloud_daemon.jolidaemon.ijolidaemon
ISessionManager
p19
asS'dropin'
p20
g6
sS'name'
p21
S'foldersManager'
p22
sg10
NsbasbsS'info'
p23
g3
(g4
g5
NtRp24
(dp25
g8
S'jolicloud_daemon.managers.info'
p26
sg10
Nsg11
(lp27
g3
(g13
g5
NtRp28
(dp29
g16
(lp30
g18
ag19
asg20
g24
sg21
S'infoManager'
p31
sg10
NsbasbsS'daemon'
p32
g3
(g4
g5
NtRp33
(dp34
g8
S'jolicloud_daemon.managers.daemon'
p35
sg10
Nsg11
(lp36
g3
(g13
g5
NtRp37
(dp38
g16
(lp39
g18
ag19
asg20
g33
sg21
S'daemonManager'
p40
sg10
NsbasbsS'network'
p41
g3
(g4
g5
NtRp42
(dp43
g8
S'jolicloud_daemon.managers.network'
p44
sg10
Nsg11
(lp45
g3
(g13
g5
NtRp46
(dp47
g16
(lp48
g18
ag19
asg20
g42
sg21
S'networkManager'
p49
sg10
NsbasbsS'power'
p50
g3
(g4
g5
NtRp51
(dp52
g8
S'jolicloud_daemon.managers.power'
p53
sg10
Nsg11
(lp54
g3
(g13
g5
NtRp55
(dp56
g16
(lp57
g18
ag19
asg20
g51
sg21
S'powerManager'
p58
sg10
NsbasbsS'apps'
p59
g3
(g4
g5
NtRp60
(dp61
g8
S'jolicloud_daemon.managers.apps'
p62
sg10
Nsg11
(lp63
g3
(g13
g5
NtRp64
(dp65
g16
(lp66
g18
ag19
asg20
g60
sg21
S'appsManager'
p67
sg10
NsbasbsS'devices'
p68
g3
(g4
g5
NtRp69
(dp70
g8
S'jolicloud_daemon.managers.devices'
p71
sg10
Nsg11
(lp72
g3
(g13
g5
NtRp73
(dp74
g16
(lp75
g18
ag19
asg20
g69
sg21
S'devicesManager'
p76
sg10
NsbasbsS'session'
p77
g3
(g4
g5
NtRp78
(dp79
g8
S'jolicloud_daemon.managers.session'
p80
sg10
Nsg11
(lp81
g3
(g13
g5
NtRp82
(dp83
g16
(lp84
g18
ag19
asg20
g78
sg21
S'sessionManager'
p85
sg10
NsbasbsS'localstorage'
p86
g3
(g4
g5
NtRp87
(dp88
g8
S'jolicloud_daemon.managers.localstorage'
p89
sg10
Nsg11
(lp90
g3
(g13
g5
NtRp91
(dp92
g16
(lp93
g18
ag19
asg20
g87
sg21
S'localstorageManager'
p94
sg10
NsbasbsS'filesystem'
p95
g3
(g4
g5
NtRp96
(dp97
g8
S'jolicloud_daemon.managers.filesystem'
p98
sg10
Nsg11
(lp99
g3
(g13
g5
NtRp100
(dp101
g16
(lp102
g18
ag19
asg20
g96
sg21
S'filesystemManager'
p103
sg10
NsbasbsS'packages'
p104
g3
(g4
g5
NtRp105
(dp106
g8
S'jolicloud_daemon.managers.packages'
p107
sg10
Nsg11
(lp108
g3
(g13
g5
NtRp109
(dp110
g16
(lp111
g18
ag19
asg20
g105
sg21
S'packagesManager'
p112
sg10
NsbasbsS'preferences'
p113
g3
(g4
g5
NtRp114
(dp115
g8
S'jolicloud_daemon.managers.preferences'
p116
sg10
Nsg11
(lp117
g3
(g13
g5
NtRp118
(dp119
g16
(lp120
g18
ag19
asg20
g114
sg21
S'preferencesManager'
p121
sg10
Nsbasbs.