(dp1
S'folders'
p2
ccopy_reg
_reconstructor
p3
(ctwisted.plugin
CachedDropin
p4
c__builtin__
object
p5
NtRp6
(dp7
S'moduleName'
p8
S'jolicloud_daemon.managers.folders'
p9
sS'description'
p10
NsS'plugins'
p11
(lp12
g3
(ctwisted.plugin
CachedPlugin
p13
g5
NtRp14
(dp15
S'provided'
p16
(lp17
ctwisted.plugin
IPlugin
p18
acjolicloud_daemon.jolidaemon.ijolidaemon
ISessionManager
p19
asS'dropin'
p20
g6
sS'name'
p21
S'foldersManager'
p22
sg10
NsbasbsS'info'
p23
g3
(g4
g5
NtRp24
(dp25
g8
S'jolicloud_daemon.managers.info'
p26
sg10
Nsg11
(lp27
g3
(g13
g5
NtRp28
(dp29
g16
(lp30
g18
ag19
asg20
g24
sg21
S'infoManager'
p31
sg10
NsbasbsS'daemon'
p32
g3
(g4
g5
NtRp33
(dp34
g8
S'jolicloud_daemon.managers.daemon'
p35
sg10
Nsg11
(lp36
g3
(g13
g5
NtRp37
(dp38
g16
(lp39
g18
ag19
asg20
g33
sg21
S'daemonManager'
p40
sg10
NsbasbsS'network'
p41
g3
(g4
g5
NtRp42
(dp43
g8
S'jolicloud_daemon.managers.network'
p44
sg10
Nsg11
(lp45
g3
(g13
g5
NtRp46
(dp47
g16
(lp48
g18
ag19
asg20
g42
sg21
S'networkManager'
p49
sg10
NsbasbsS'power'
p50
g3
(g4
g5
NtRp51
(dp52
g8
S'jolicloud_daemon.managers.power'
p53
sg10
Nsg11
(lp54
g3
(g13
g5
NtRp55
(dp56
g16
(lp57
g18
ag19
asg20
g51
sg21
S'powerManager'
p58
sg10
NsbasbsS'apps'
p59
g3
(g4
g5
NtRp60
(dp61
S'moduleName'
p62
S'jolicloud_daemon.managers.apps'
p63
sS'description'
p64
NsS'plugins'
p65
(lp66
g3
(g13
g5
NtRp67
(dp68
S'provided'
p69
(lp70
g18
ag19
asS'dropin'
p71
g60
sS'name'
p72
S'appsManager'
p73
sg64
NsbasbsS'devices'
p74
g3
(g4
g5
NtRp75
(dp76
S'moduleName'
p77
S'jolicloud_daemon.managers.devices'
p78
sS'description'
p79
NsS'plugins'
p80
(lp81
g3
(g13
g5
NtRp82
(dp83
S'provided'
p84
(lp85
g18
ag19
asS'dropin'
p86
g75
sS'name'
p87
S'devicesManager'
p88
sg79
NsbasbsS'session'
p89
g3
(g4
g5
NtRp90
(dp91
g8
S'jolicloud_daemon.managers.session'
p92
sg10
Nsg11
(lp93
g3
(g13
g5
NtRp94
(dp95
g16
(lp96
g18
ag19
asg20
g90
sg21
S'sessionManager'
p97
sg10
NsbasbsS'localstorage'
p98
g3
(g4
g5
NtRp99
(dp100
g8
S'jolicloud_daemon.managers.localstorage'
p101
sg10
Nsg11
(lp102
g3
(g13
g5
NtRp103
(dp104
g16
(lp105
g18
ag19
asg20
g99
sg21
S'localstorageManager'
p106
sg10
NsbasbsS'dbusdevices'
p107
g3
(g4
g5
NtRp108
(dp109
g77
S'jolicloud_daemon.managers.dbusdevices'
p110
sg79
Nsg80
(lp111
g3
(g13
g5
NtRp112
(dp113
g84
(lp114
g18
ag19
asg86
g108
sg87
g88
sg79
NsbasbsS'packages'
p115
g3
(g4
g5
NtRp116
(dp117
S'moduleName'
p118
S'jolicloud_daemon.managers.packages'
p119
sS'description'
p120
NsS'plugins'
p121
(lp122
g3
(g13
g5
NtRp123
(dp124
S'provided'
p125
(lp126
g18
ag19
asS'dropin'
p127
g116
sS'name'
p128
S'packagesManager'
p129
sg120
NsbasbsS'preferences'
p130
g3
(g4
g5
NtRp131
(dp132
g8
S'jolicloud_daemon.managers.preferences'
p133
sg10
Nsg11
(lp134
g3
(g13
g5
NtRp135
(dp136
g16
(lp137
g18
ag19
asg20
g131
sg21
S'preferencesManager'
p138
sg10
Nsbasbs.