(dp1
S'folders'
p2
ccopy_reg
_reconstructor
p3
(ctwisted.plugin
CachedDropin
p4
c__builtin__
object
p5
NtRp6
(dp7
S'moduleName'
p8
S'jolicloud_daemon.managers.folders'
p9
sS'description'
p10
NsS'plugins'
p11
(lp12
g3
(ctwisted.plugin
CachedPlugin
p13
g5
NtRp14
(dp15
S'provided'
p16
(lp17
ctwisted.plugin
IPlugin
p18
acjolicloud_daemon.jolidaemon.ijolidaemon
ISessionManager
p19
asS'dropin'
p20
g6
sS'name'
p21
S'foldersManager'
p22
sg10
NsbasbsS'info'
p23
g3
(g4
g5
NtRp24
(dp25
g8
S'jolicloud_daemon.managers.info'
p26
sg10
Nsg11
(lp27
g3
(g13
g5
NtRp28
(dp29
g16
(lp30
g18
ag19
asg20
g24
sg21
S'infoManager'
p31
sg10
NsbasbsS'daemon'
p32
g3
(g4
g5
NtRp33
(dp34
S'moduleName'
p35
S'jolicloud_daemon.managers.daemon'
p36
sS'description'
p37
NsS'plugins'
p38
(lp39
g3
(g13
g5
NtRp40
(dp41
S'provided'
p42
(lp43
g18
ag19
asS'dropin'
p44
g33
sS'name'
p45
S'daemonManager'
p46
sg37
NsbasbsS'network'
p47
g3
(g4
g5
NtRp48
(dp49
S'moduleName'
p50
S'jolicloud_daemon.managers.network'
p51
sS'description'
p52
NsS'plugins'
p53
(lp54
g3
(g13
g5
NtRp55
(dp56
S'provided'
p57
(lp58
g18
ag19
asS'dropin'
p59
g48
sS'name'
p60
S'networkManager'
p61
sg52
NsbasbsS'power'
p62
g3
(g4
g5
NtRp63
(dp64
S'moduleName'
p65
S'jolicloud_daemon.managers.power'
p66
sS'description'
p67
NsS'plugins'
p68
(lp69
g3
(g13
g5
NtRp70
(dp71
S'provided'
p72
(lp73
g18
ag19
asS'dropin'
p74
g63
sS'name'
p75
S'powerManager'
p76
sg67
NsbasbsS'apps'
p77
g3
(g4
g5
NtRp78
(dp79
S'moduleName'
p80
S'jolicloud_daemon.managers.apps'
p81
sS'description'
p82
NsS'plugins'
p83
(lp84
g3
(g13
g5
NtRp85
(dp86
S'provided'
p87
(lp88
g18
ag19
asS'dropin'
p89
g78
sS'name'
p90
S'appsManager'
p91
sg82
NsbasbsS'devices'
p92
g3
(g4
g5
NtRp93
(dp94
S'moduleName'
p95
S'jolicloud_daemon.managers.devices'
p96
sS'description'
p97
NsS'plugins'
p98
(lp99
g3
(g13
g5
NtRp100
(dp101
S'provided'
p102
(lp103
g18
ag19
asS'dropin'
p104
g93
sS'name'
p105
S'devicesManager'
p106
sg97
NsbasbsS'session'
p107
g3
(g4
g5
NtRp108
(dp109
g8
S'jolicloud_daemon.managers.session'
p110
sg10
Nsg11
(lp111
g3
(g13
g5
NtRp112
(dp113
g16
(lp114
g18
ag19
asg20
g108
sg21
S'sessionManager'
p115
sg10
NsbasbsS'localstorage'
p116
g3
(g4
g5
NtRp117
(dp118
g8
S'jolicloud_daemon.managers.localstorage'
p119
sg10
Nsg11
(lp120
g3
(g13
g5
NtRp121
(dp122
g16
(lp123
g18
ag19
asg20
g117
sg21
S'localstorageManager'
p124
sg10
NsbasbsS'filesystem'
p125
g3
(g4
g5
NtRp126
(dp127
S'moduleName'
p128
S'jolicloud_daemon.managers.filesystem'
p129
sS'description'
p130
NsS'plugins'
p131
(lp132
g3
(g13
g5
NtRp133
(dp134
S'provided'
p135
(lp136
g18
ag19
asS'dropin'
p137
g126
sS'name'
p138
S'filesystemManager'
p139
sg130
NsbasbsS'packages'
p140
g3
(g4
g5
NtRp141
(dp142
S'moduleName'
p143
S'jolicloud_daemon.managers.packages'
p144
sS'description'
p145
NsS'plugins'
p146
(lp147
g3
(g13
g5
NtRp148
(dp149
S'provided'
p150
(lp151
g18
ag19
asS'dropin'
p152
g141
sS'name'
p153
S'packagesManager'
p154
sg145
NsbasbsS'preferences'
p155
g3
(g4
g5
NtRp156
(dp157
S'moduleName'
p158
S'jolicloud_daemon.managers.preferences'
p159
sS'description'
p160
NsS'plugins'
p161
(lp162
g3
(g13
g5
NtRp163
(dp164
S'provided'
p165
(lp166
g18
ag19
asS'dropin'
p167
g156
sS'name'
p168
S'preferencesManager'
p169
sg160
Nsbasbs.