(dp1
S'folders'
p2
ccopy_reg
_reconstructor
p3
(ctwisted.plugin
CachedDropin
p4
c__builtin__
object
p5
NtRp6
(dp7
S'moduleName'
p8
S'jolicloud_daemon.managers.folders'
p9
sS'description'
p10
NsS'plugins'
p11
(lp12
g3
(ctwisted.plugin
CachedPlugin
p13
g5
NtRp14
(dp15
S'provided'
p16
(lp17
ctwisted.plugin
IPlugin
p18
acjolicloud_daemon.jolidaemon.ijolidaemon
ISessionManager
p19
asS'dropin'
p20
g6
sS'name'
p21
S'foldersManager'
p22
sg10
NsbasbsS'info'
p23
g3
(g4
g5
NtRp24
(dp25
g8
S'jolicloud_daemon.managers.info'
p26
sg10
Nsg11
(lp27
g3
(g13
g5
NtRp28
(dp29
g16
(lp30
g18
ag19
asg20
g24
sg21
S'infoManager'
p31
sg10
NsbasbsS'daemon'
p32
g3
(g4
g5
NtRp33
(dp34
S'moduleName'
p35
S'jolicloud_daemon.managers.daemon'
p36
sS'description'
p37
NsS'plugins'
p38
(lp39
g3
(g13
g5
NtRp40
(dp41
S'provided'
p42
(lp43
g18
ag19
asS'dropin'
p44
g33
sS'name'
p45
S'daemonManager'
p46
sg37
NsbasbsS'network'
p47
g3
(g4
g5
NtRp48
(dp49
S'moduleName'
p50
S'jolicloud_daemon.managers.network'
p51
sS'description'
p52
NsS'plugins'
p53
(lp54
g3
(g13
g5
NtRp55
(dp56
S'provided'
p57
(lp58
g18
ag19
asS'dropin'
p59
g48
sS'name'
p60
S'networkManager'
p61
sg52
NsbasbsS'power'
p62
g3
(g4
g5
NtRp63
(dp64
g8
S'jolicloud_daemon.managers.power'
p65
sg10
Nsg11
(lp66
g3
(g13
g5
NtRp67
(dp68
g16
(lp69
g18
ag19
asg20
g63
sg21
S'powerManager'
p70
sg10
NsbasbsS'apps'
p71
g3
(g4
g5
NtRp72
(dp73
S'moduleName'
p74
S'jolicloud_daemon.managers.apps'
p75
sS'description'
p76
NsS'plugins'
p77
(lp78
g3
(g13
g5
NtRp79
(dp80
S'provided'
p81
(lp82
g18
ag19
asS'dropin'
p83
g72
sS'name'
p84
S'appsManager'
p85
sg76
NsbasbsS'devices'
p86
g3
(g4
g5
NtRp87
(dp88
S'moduleName'
p89
S'jolicloud_daemon.managers.devices'
p90
sS'description'
p91
NsS'plugins'
p92
(lp93
g3
(g13
g5
NtRp94
(dp95
S'provided'
p96
(lp97
g18
ag19
asS'dropin'
p98
g87
sS'name'
p99
S'devicesManager'
p100
sg91
NsbasbsS'session'
p101
g3
(g4
g5
NtRp102
(dp103
g8
S'jolicloud_daemon.managers.session'
p104
sg10
Nsg11
(lp105
g3
(g13
g5
NtRp106
(dp107
g16
(lp108
g18
ag19
asg20
g102
sg21
S'sessionManager'
p109
sg10
NsbasbsS'localstorage'
p110
g3
(g4
g5
NtRp111
(dp112
g8
S'jolicloud_daemon.managers.localstorage'
p113
sg10
Nsg11
(lp114
g3
(g13
g5
NtRp115
(dp116
g16
(lp117
g18
ag19
asg20
g111
sg21
S'localstorageManager'
p118
sg10
NsbasbsS'packages'
p119
g3
(g4
g5
NtRp120
(dp121
S'moduleName'
p122
S'jolicloud_daemon.managers.packages'
p123
sS'description'
p124
NsS'plugins'
p125
(lp126
g3
(g13
g5
NtRp127
(dp128
S'provided'
p129
(lp130
g18
ag19
asS'dropin'
p131
g120
sS'name'
p132
S'packagesManager'
p133
sg124
NsbasbsS'preferences'
p134
g3
(g4
g5
NtRp135
(dp136
S'moduleName'
p137
S'jolicloud_daemon.managers.preferences'
p138
sS'description'
p139
NsS'plugins'
p140
(lp141
g3
(g13
g5
NtRp142
(dp143
S'provided'
p144
(lp145
g18
ag19
asS'dropin'
p146
g135
sS'name'
p147
S'preferencesManager'
p148
sg139
Nsbasbs.